; Function Attrs: nounwind uwtable
define internal noundef i32 @aes_ofb_cipher(ptr noundef %0, ptr noundef %1, ptr noundef %2, i64 noundef %3) #2 {
  %5 = alloca i32, align 4
  %6 = tail call ptr @EVP_CIPHER_CTX_get_cipher_data(ptr noundef %0) #8
  call void @llvm.lifetime.start.p0(i64 4, ptr nonnull %5) #8
  %7 = tail call i32 @EVP_CIPHER_CTX_get_num(ptr noundef %0) #8
  store i32 %7, ptr %5, align 4, !tbaa !3
  %8 = getelementptr inbounds nuw i8, ptr %0, i64 40
  %9 = getelementptr inbounds nuw i8, ptr %6, i64 248
  %10 = load ptr, ptr %9, align 8, !tbaa !7
  call void @CRYPTO_ofb128_encrypt(ptr noundef %2, ptr noundef %1, i64 noundef %3, ptr noundef %6, ptr noundef nonnull %8, ptr noundef nonnull %5, ptr noundef %10) #8
  %11 = load i32, ptr %5, align 4, !tbaa !3
  %12 = call i32 @EVP_CIPHER_CTX_set_num(ptr noundef %0, i32 noundef %11) #8
  call void @llvm.lifetime.end.p0(i64 4, ptr nonnull %5) #8
  ret i32 1
}